; Function Attrs: nounwind uwtable
define dso_local i32 @lzma_alone_decoder(ptr noundef %0, i64 noundef %1) local_unnamed_addr #0 {
  %3 = tail call i32 @lzma_strm_init(ptr noundef %0) #7
  %.not.not = icmp eq i32 %3, 0
  br i1 %.not.not, label %4, label %36

4:                                                ; preds = %2
  %5 = getelementptr inbounds nuw i8, ptr %0, i64 56
  %6 = load ptr, ptr %5, align 8, !tbaa !42
  %7 = getelementptr inbounds nuw i8, ptr %0, i64 48
  %8 = load ptr, ptr %7, align 8, !tbaa !45
  %9 = getelementptr inbounds nuw i8, ptr %6, i64 16
  %10 = load i64, ptr %9, align 8, !tbaa !4
  %.not.i = icmp eq i64 %10, ptrtoint (ptr @lzma_alone_decoder_init to i64)
  br i1 %.not.i, label %12, label %11

11:                                               ; preds = %4
  tail call void @lzma_next_end(ptr noundef nonnull %6, ptr noundef %8) #7
  br label %12

12:                                               ; preds = %11, %4
  store i64 ptrtoint (ptr @lzma_alone_decoder_init to i64), ptr %9, align 8, !tbaa !4
  %13 = load ptr, ptr %6, align 8, !tbaa !10
  %14 = icmp eq ptr %13, null
  br i1 %14, label %15, label %23

15:                                               ; preds = %12
  %16 = tail call ptr @lzma_alloc(i64 noundef 232, ptr noundef %8) #7
  %17 = icmp eq ptr %16, null
  br i1 %17, label %22, label %18

18:                                               ; preds = %15
  store ptr %16, ptr %6, align 8, !tbaa !10
  %19 = getelementptr inbounds nuw i8, ptr %6, i64 24
  store ptr @alone_decode, ptr %19, align 8, !tbaa !11
  %20 = getelementptr inbounds nuw i8, ptr %6, i64 32
  store ptr @alone_decoder_end, ptr %20, align 8, !tbaa !12
  %21 = getelementptr inbounds nuw i8, ptr %6, i64 56
  store ptr @alone_decoder_memconfig, ptr %21, align 8, !tbaa !13
  store ptr null, ptr %16, align 8, !tbaa !14
  %.sroa.2.0..sroa_idx.i = getelementptr inbounds nuw i8, ptr %16, i64 8
  store i64 -1, ptr %.sroa.2.0..sroa_idx.i, align 8, !tbaa !15
  %.sroa.3.0..sroa_idx.i = getelementptr inbounds nuw i8, ptr %16, i64 16
  tail call void @llvm.memset.p0.i64(ptr noundef nonnull align 8 dereferenceable(64) %.sroa.3.0..sroa_idx.i, i8 0, i64 64, i1 false)
  br label %23

22:                                               ; preds = %15
  tail call void @lzma_end(ptr noundef nonnull %0) #7
  br label %36

23:                                               ; preds = %18, %12
  %.026.i = phi ptr [ %16, %18 ], [ %13, %12 ]
  %24 = getelementptr inbounds nuw i8, ptr %.026.i, i64 80
  store i32 0, ptr %24, align 8, !tbaa !16
  %25 = getelementptr inbounds nuw i8, ptr %.026.i, i64 84
  store i8 0, ptr %25, align 4, !tbaa !22
  %26 = getelementptr inbounds nuw i8, ptr %.026.i, i64 88
  %27 = getelementptr inbounds nuw i8, ptr %.026.i, i64 120
  store i32 0, ptr %27, align 8, !tbaa !23
  %28 = getelementptr inbounds nuw i8, ptr %.026.i, i64 128
  store ptr null, ptr %28, align 8, !tbaa !24
  %29 = getelementptr inbounds nuw i8, ptr %.026.i, i64 136
  store i32 0, ptr %29, align 8, !tbaa !25
  %30 = tail call i64 @llvm.umax.i64(i64 %1, i64 1)
  %31 = getelementptr inbounds nuw i8, ptr %.026.i, i64 104
  tail call void @llvm.memset.p0.i64(ptr noundef nonnull align 8 dereferenceable(16) %26, i8 0, i64 16, i1 false)
  store i64 %30, ptr %31, align 8, !tbaa !26
  %32 = getelementptr inbounds nuw i8, ptr %.026.i, i64 112
  store i64 32768, ptr %32, align 8, !tbaa !27
  %33 = load ptr, ptr %5, align 8, !tbaa !42
  %34 = getelementptr inbounds nuw i8, ptr %33, i64 96
  store i8 1, ptr %34, align 8, !tbaa !46
  %35 = getelementptr inbounds nuw i8, ptr %33, i64 99
  store i8 1, ptr %35, align 1, !tbaa !46
  br label %36

36:                                               ; preds = %22, %2, %23
  %.1 = phi i32 [ %3, %2 ], [ 5, %22 ], [ 0, %23 ]
  ret i32 %.1
}